target datalayout = "e-m:e-p270:32:32-p271:32:32-p272:64:64-i64:64-i128:128-f80:128-n8:16:32:64-S128"
target triple = "x86_64-pc-linux-gnu"

; Function Attrs: nounwind uwtable
define dso_local i32 @curlx_nonblock(i32 noundef %0, i32 noundef %1) #0 {
  %3 = alloca i32, align 4
  %4 = alloca i32, align 4
  %5 = alloca i32, align 4
  %6 = alloca i32, align 4
  %7 = alloca i32, align 4
  store i32 %0, ptr %4, align 4, !tbaa !4
  store i32 %1, ptr %5, align 4, !tbaa !4
  call void @llvm.lifetime.start.p0(i64 4, ptr %6) #3
  %8 = load i32, ptr %4, align 4, !tbaa !4
  %9 = call i32 (i32, i32, ...) @fcntl(i32 noundef %8, i32 noundef 3, i32 noundef 0)
  store i32 %9, ptr %6, align 4, !tbaa !4
  %10 = load i32, ptr %6, align 4, !tbaa !4
  %11 = icmp slt i32 %10, 0
  br i1 %11, label %12, label %13

12:                                               ; preds = %2
  store i32 -1, ptr %3, align 4
  store i32 1, ptr %7, align 4
  br label %40

13:                                               ; preds = %2
  %14 = load i32, ptr %6, align 4, !tbaa !4
  %15 = and i32 %14, 2048
  %16 = icmp ne i32 %15, 0
  %17 = xor i1 %16, true
  %18 = xor i1 %17, true
  %19 = zext i1 %18 to i32
  %20 = load i32, ptr %5, align 4, !tbaa !4
  %21 = icmp ne i32 %20, 0
  %22 = xor i1 %21, true
  %23 = xor i1 %22, true
  %24 = zext i1 %23 to i32
  %25 = icmp eq i32 %19, %24
  br i1 %25, label %26, label %27

26:                                               ; preds = %13
  store i32 0, ptr %3, align 4
  store i32 1, ptr %7, align 4
  br label %40

27:                                               ; preds = %13
  %28 = load i32, ptr %5, align 4, !tbaa !4
  %29 = icmp ne i32 %28, 0
  br i1 %29, label %30, label %33

30:                                               ; preds = %27
  %31 = load i32, ptr %6, align 4, !tbaa !4
  %32 = or i32 %31, 2048
  store i32 %32, ptr %6, align 4, !tbaa !4
  br label %36

33:                                               ; preds = %27
  %34 = load i32, ptr %6, align 4, !tbaa !4
  %35 = and i32 %34, -2049
  store i32 %35, ptr %6, align 4, !tbaa !4
  br label %36

36:                                               ; preds = %33, %30
  %37 = load i32, ptr %4, align 4, !tbaa !4
  %38 = load i32, ptr %6, align 4, !tbaa !4
  %39 = call i32 (i32, i32, ...) @fcntl(i32 noundef %37, i32 noundef 4, i32 noundef %38)
  store i32 %39, ptr %3, align 4
  store i32 1, ptr %7, align 4
  br label %40

40:                                               ; preds = %36, %26, %12
  call void @llvm.lifetime.end.p0(i64 4, ptr %6) #3
  %41 = load i32, ptr %3, align 4
  ret i32 %41
}

; Function Attrs: nocallback nofree nosync nounwind willreturn memory(argmem: readwrite)
declare void @llvm.lifetime.start.p0(i64 immarg, ptr captures(none)) #1

declare i32 @fcntl(i32 noundef, i32 noundef, ...) #2

; Function Attrs: nocallback nofree nosync nounwind willreturn memory(argmem: readwrite)
declare void @llvm.lifetime.end.p0(i64 immarg, ptr captures(none)) #1


!llvm.module.flags = !{!0, !1, !2, !3}

!0 = !{i32 1, !"wchar_size", i32 4}
!1 = !{i32 8, !"PIC Level", i32 2}
!2 = !{i32 7, !"PIE Level", i32 2}
!3 = !{i32 7, !"uwtable", i32 2}
!4 = !{!5, !5, i64 0}
!5 = !{!"int", !6, i64 0}
!6 = !{!"omnipotent char", !7, i64 0}
!7 = !{!"Simple C/C++ TBAA"}
